target datalayout = "e-m:e-p270:32:32-p271:32:32-p272:64:64-i64:64-i128:128-f80:128-n8:16:32:64-S128"
target triple = "x86_64-pc-linux-gnu"

@hf_iremotewinspool_winspool_AsyncDeletePrinterDriverPackage_pszEnvironment = internal global i32 0, align 4
@.str.514 = private unnamed_addr constant [5 x i8] c": %s\00", align 1

; Function Attrs: null_pointer_is_valid sspstrong uwtable
define internal i32 @iremotewinspool_dissect_element_winspool_AsyncDeletePrinterDriverPackage_pszEnvironment_(ptr noundef %0, i32 noundef %1, ptr noundef %2, ptr noundef %3, ptr noundef %4, ptr noundef %5) #0 {
  %7 = alloca ptr, align 8
  %8 = alloca i32, align 4
  %9 = alloca ptr, align 8
  %10 = alloca ptr, align 8
  %11 = alloca ptr, align 8
  %12 = alloca ptr, align 8
  %13 = alloca ptr, align 8
  store ptr %0, ptr %7, align 8
  store i32 %1, ptr %8, align 4
  store ptr %2, ptr %9, align 8
  store ptr %3, ptr %10, align 8
  store ptr %4, ptr %11, align 8
  store ptr %5, ptr %12, align 8
  call void @llvm.lifetime.start.p0(i64 8, ptr %13) #3
  %14 = load ptr, ptr %7, align 8
  %15 = load i32, ptr %8, align 4
  %16 = load ptr, ptr %9, align 8
  %17 = load ptr, ptr %10, align 8
  %18 = load ptr, ptr %11, align 8
  %19 = load ptr, ptr %12, align 8
  %20 = load i32, ptr @hf_iremotewinspool_winspool_AsyncDeletePrinterDriverPackage_pszEnvironment, align 4
  %21 = call i32 @dissect_ndr_cvstring(ptr noundef %14, i32 noundef %15, ptr noundef %16, ptr noundef %17, ptr noundef %18, ptr noundef %19, i32 noundef 2, i32 noundef %20, i1 noundef zeroext false, ptr noundef %13)
  store i32 %21, ptr %8, align 4
  %22 = load ptr, ptr %10, align 8
  %23 = load ptr, ptr %13, align 8
  call void (ptr, ptr, ...) @proto_item_append_text(ptr noundef %22, ptr noundef @.str.514, ptr noundef %23)
  %24 = load i32, ptr %8, align 4
  call void @llvm.lifetime.end.p0(i64 8, ptr %13) #3
  ret i32 %24
}